; Function Attrs: mustprogress nofree norecurse nosync nounwind willreturn memory(argmem: write) uwtable
define void @lv_vector_dsc_set_fill_radial_gradient(ptr nocapture noundef writeonly %0, float noundef %1, float noundef %2, float noundef %3) local_unnamed_addr #7 {
  %5 = getelementptr inbounds nuw i8, ptr %0, i64 8
  store i32 2, ptr %5, align 8, !tbaa !61
  %6 = getelementptr inbounds nuw i8, ptr %0, i64 168
  store i32 1, ptr %6, align 8, !tbaa !64
  %7 = getelementptr inbounds nuw i8, ptr %0, i64 200
  store float %1, ptr %7, align 8, !tbaa !69
  %8 = getelementptr inbounds nuw i8, ptr %0, i64 204
  store float %2, ptr %8, align 4, !tbaa !70
  %9 = getelementptr inbounds nuw i8, ptr %0, i64 208
  store float %3, ptr %9, align 8, !tbaa !71
  ret void
}